; Function Attrs: nounwind uwtable
define ptr @l_Lean_IR_ExplicitBoxing_addBoxedVersions(ptr noundef %0, ptr noundef %1) local_unnamed_addr #0 {
lean_nat_lt.exit:
  %2 = getelementptr i8, ptr %1, i64 8
  %.val = load i64, ptr %2, align 8, !tbaa !8
  %.mask = and i64 %.val, 9223372036854775807
  %.not = icmp eq i64 %.mask, 0
  br i1 %.not, label %lean_dec.exit32, label %lean_dec.exit28

lean_dec.exit32:                                  ; preds = %lean_nat_lt.exit
  %3 = ptrtoint ptr %0 to i64
  %4 = and i64 %3, 1
  %.not47 = icmp eq i64 %4, 0
  br i1 %.not47, label %5, label %lean_dec.exit31

5:                                                ; preds = %lean_dec.exit32
  %6 = load i32, ptr %0, align 4, !tbaa !10
  %7 = icmp sgt i32 %6, 1
  br i1 %7, label %8, label %10, !prof !13

8:                                                ; preds = %5
  %9 = add nsw i32 %6, -1
  store i32 %9, ptr %0, align 4, !tbaa !10
  br label %lean_dec.exit31

10:                                               ; preds = %5
  %.not.i33 = icmp eq i32 %6, 0
  br i1 %.not.i33, label %lean_dec.exit31, label %11

11:                                               ; preds = %10
  tail call void @lean_dec_ref_cold(ptr noundef nonnull %0) #6
  br label %lean_dec.exit31

lean_dec.exit31:                                  ; preds = %11, %10, %8, %lean_dec.exit32
  %12 = load ptr, ptr @l_Lean_IR_ExplicitBoxing_mkBoxedVersionAux___closed__1, align 8, !tbaa !4
  %13 = tail call ptr @l_Array_append___rarg(ptr noundef nonnull %1, ptr noundef %12) #6
  br label %lean_dec.exit

lean_dec.exit28:                                  ; preds = %lean_nat_lt.exit
  %14 = load ptr, ptr @l_Lean_IR_ExplicitBoxing_mkBoxedVersionAux___closed__1, align 8, !tbaa !4
  %15 = tail call ptr @l_Array_foldlMUnsafe_fold___at_Lean_IR_ExplicitBoxing_addBoxedVersions___spec__1(ptr noundef %0, ptr noundef nonnull %1, i64 noundef 0, i64 noundef %.mask, ptr noundef %14)
  %16 = tail call ptr @l_Array_append___rarg(ptr noundef nonnull %1, ptr noundef %15) #6
  %17 = ptrtoint ptr %15 to i64
  %18 = and i64 %17, 1
  %.not46 = icmp eq i64 %18, 0
  br i1 %.not46, label %19, label %lean_dec.exit

19:                                               ; preds = %lean_dec.exit28
  %20 = load i32, ptr %15, align 4, !tbaa !10
  %21 = icmp sgt i32 %20, 1
  br i1 %21, label %22, label %24, !prof !13

22:                                               ; preds = %19
  %23 = add nsw i32 %20, -1
  store i32 %23, ptr %15, align 4, !tbaa !10
  br label %lean_dec.exit

24:                                               ; preds = %19
  %.not.i41 = icmp eq i32 %20, 0
  br i1 %.not.i41, label %lean_dec.exit, label %25

25:                                               ; preds = %24
  tail call void @lean_dec_ref_cold(ptr noundef nonnull %15) #6
  br label %lean_dec.exit

lean_dec.exit:                                    ; preds = %lean_dec.exit28, %22, %24, %25, %lean_dec.exit31
  %.0 = phi ptr [ %13, %lean_dec.exit31 ], [ %16, %25 ], [ %16, %24 ], [ %16, %22 ], [ %16, %lean_dec.exit28 ]
  ret ptr %.0
}